target datalayout = "e-m:e-p270:32:32-p271:32:32-p272:64:64-i64:64-i128:128-f80:128-n8:16:32:64-S128"
target triple = "x86_64-pc-linux-gnu"

%class.MutexLocker = type { %class.MutexLockerImpl }
%class.MutexLockerImpl = type { ptr }

@.str.54 = private unnamed_addr constant [44 x i8] c"---------------  S U M M A R Y ------------\00", align 1
@.str.97 = private unnamed_addr constant [48 x i8] c"---------------  P R O C E S S  ---------------\00", align 1
@.str.110 = private unnamed_addr constant [48 x i8] c"OutOfMemory and StackOverflow Exception counts:\00", align 1
@UseCompressedOops = external global i8, align 1
@UseCompressedClassPointers = external global i8, align 1
@.str.114 = private unnamed_addr constant [23 x i8] c"Polling page: 0x%016lx\00", align 1
@.str.116 = private unnamed_addr constant [11 x i8] c"Metaspace:\00", align 1
@.str.124 = private unnamed_addr constant [50 x i8] c"Unsupported internal testing APIs have been used.\00", align 1
@.str.126 = private unnamed_addr constant [9 x i8] c"Logging:\00", align 1
@.str.133 = private unnamed_addr constant [46 x i8] c"---------------  S Y S T E M  ---------------\00", align 1
@.str.138 = private unnamed_addr constant [12 x i8] c"vm_info: %s\00", align 1
@.str.140 = private unnamed_addr constant [5 x i8] c"END.\00", align 1
@Heap_lock = external global ptr, align 8
@_ZN8Universe18_fully_initializedE = external global i8, align 1
@_ZN8Universe14_collectedHeapE = external global ptr, align 8
@_ZN18SafepointMechanism13_polling_pageE = external global ptr, align 8
@_ZN8WhiteBox5_usedE = external global i8, align 1

; Function Attrs: mustprogress nounwind uwtable
define linkonce_odr hidden void @_ZN15MutexLockerImplD2Ev(ptr noundef nonnull align 8 dereferenceable(8) %0) unnamed_addr #1 comdat align 2 {
  %2 = alloca ptr, align 8
  store ptr %0, ptr %2, align 8
  %3 = load ptr, ptr %2, align 8
  %4 = getelementptr inbounds %class.MutexLockerImpl, ptr %3, i32 0, i32 0
  %5 = load ptr, ptr %4, align 8
  %6 = icmp ne ptr %5, null
  br i1 %6, label %7, label %10

7:                                                ; preds = %1
  %8 = getelementptr inbounds %class.MutexLockerImpl, ptr %3, i32 0, i32 0
  %9 = load ptr, ptr %8, align 8
  call void @_ZN5Mutex6unlockEv(ptr noundef nonnull align 8 dereferenceable(104) %9)
  br label %10

10:                                               ; preds = %7, %1
  ret void
}

; Function Attrs: mustprogress nounwind uwtable
define linkonce_odr hidden void @_ZN15MutexLockerImplC2EP5MutexNS0_18SafepointCheckFlagE(ptr noundef nonnull align 8 dereferenceable(8) %0, ptr noundef %1, i32 noundef %2) unnamed_addr #1 comdat align 2 {
  %4 = alloca ptr, align 8
  %5 = alloca ptr, align 8
  %6 = alloca i32, align 4
  %7 = alloca i8, align 1
  store ptr %0, ptr %4, align 8
  store ptr %1, ptr %5, align 8
  store i32 %2, ptr %6, align 4
  %8 = load ptr, ptr %4, align 8
  %9 = getelementptr inbounds %class.MutexLockerImpl, ptr %8, i32 0, i32 0
  %10 = load ptr, ptr %5, align 8
  store ptr %10, ptr %9, align 8
  %11 = load i32, ptr %6, align 4
  %12 = icmp eq i32 %11, 1
  %13 = zext i1 %12 to i8
  store i8 %13, ptr %7, align 1
  %14 = getelementptr inbounds %class.MutexLockerImpl, ptr %8, i32 0, i32 0
  %15 = load ptr, ptr %14, align 8
  %16 = icmp ne ptr %15, null
  br i1 %16, label %17, label %27

17:                                               ; preds = %3
  %18 = load i8, ptr %7, align 1
  %19 = trunc i8 %18 to i1
  br i1 %19, label %20, label %23

20:                                               ; preds = %17
  %21 = getelementptr inbounds %class.MutexLockerImpl, ptr %8, i32 0, i32 0
  %22 = load ptr, ptr %21, align 8
  call void @_ZN5Mutex28lock_without_safepoint_checkEv(ptr noundef nonnull align 8 dereferenceable(104) %22)
  br label %26

23:                                               ; preds = %17
  %24 = getelementptr inbounds %class.MutexLockerImpl, ptr %8, i32 0, i32 0
  %25 = load ptr, ptr %24, align 8
  call void @_ZN5Mutex4lockEv(ptr noundef nonnull align 8 dereferenceable(104) %25)
  br label %26

26:                                               ; preds = %23, %20
  br label %27

27:                                               ; preds = %26, %3
  ret void
}

; Function Attrs: mustprogress nounwind uwtable
define linkonce_odr hidden noundef zeroext i1 @_ZN8WhiteBox4usedEv() #1 comdat align 2 {
  %1 = load i8, ptr @_ZN8WhiteBox5_usedE, align 1
  %2 = trunc i8 %1 to i1
  ret i1 %2
}

; Function Attrs: mustprogress nounwind uwtable
define linkonce_odr hidden void @_ZN11MutexLockerD2Ev(ptr noundef nonnull align 8 dereferenceable(8) %0) unnamed_addr #1 comdat align 2 {
  %2 = alloca ptr, align 8
  store ptr %0, ptr %2, align 8
  %3 = load ptr, ptr %2, align 8
  call void @_ZN15MutexLockerImplD2Ev(ptr noundef nonnull align 8 dereferenceable(8) %3) #9
  ret void
}

; Function Attrs: mustprogress nounwind uwtable
define linkonce_odr hidden noundef i64 @_Z3p2iPVKv(ptr noundef %0) #1 comdat {
  %2 = alloca ptr, align 8
  store ptr %0, ptr %2, align 8
  %3 = load ptr, ptr %2, align 8
  %4 = ptrtoint ptr %3 to i64
  ret i64 %4
}

; Function Attrs: mustprogress nounwind uwtable
define linkonce_odr hidden noundef ptr @_ZN18SafepointMechanism16get_polling_pageEv() #1 comdat align 2 {
  %1 = load ptr, ptr @_ZN18SafepointMechanism13_polling_pageE, align 8
  ret ptr %1
}

; Function Attrs: mustprogress nounwind uwtable
define linkonce_odr hidden noundef ptr @_ZN8Universe4heapEv() #1 comdat align 2 {
  %1 = load ptr, ptr @_ZN8Universe14_collectedHeapE, align 8
  ret ptr %1
}

; Function Attrs: mustprogress nounwind uwtable
define linkonce_odr hidden void @_ZN11MutexLockerC2EP5MutexNS0_18SafepointCheckFlagE(ptr noundef nonnull align 8 dereferenceable(8) %0, ptr noundef %1, i32 noundef %2) unnamed_addr #1 comdat align 2 {
  %4 = alloca ptr, align 8
  %5 = alloca ptr, align 8
  %6 = alloca i32, align 4
  store ptr %0, ptr %4, align 8
  store ptr %1, ptr %5, align 8
  store i32 %2, ptr %6, align 4
  %7 = load ptr, ptr %4, align 8
  %8 = load ptr, ptr %5, align 8
  %9 = load i32, ptr %6, align 4
  call void @_ZN15MutexLockerImplC2EP5MutexNS0_18SafepointCheckFlagE(ptr noundef nonnull align 8 dereferenceable(8) %7, ptr noundef %8, i32 noundef %9)
  ret void
}

; Function Attrs: mustprogress nounwind uwtable
define linkonce_odr hidden noundef zeroext i1 @_ZN8Universe20is_fully_initializedEv() #1 comdat align 2 {
  %1 = load i8, ptr @_ZN8Universe18_fully_initializedE, align 1
  %2 = trunc i8 %1 to i1
  ret i1 %2
}

; Function Attrs: mustprogress nounwind uwtable
define hidden void @_ZN7VMError13print_vm_infoEP12outputStream(ptr noundef %0) #1 align 2 {
  %2 = alloca ptr, align 8
  %3 = alloca [2000 x i8], align 16
  %4 = alloca %class.MutexLocker, align 8
  store ptr %0, ptr %2, align 8
  call void @_ZN2os22prepare_native_symbolsEv()
  %5 = load ptr, ptr %2, align 8
  %6 = getelementptr inbounds [2000 x i8], ptr %3, i64 0, i64 0
  call void @_ZL17report_vm_versionP12outputStreamPci(ptr noundef %5, ptr noundef %6, i32 noundef 2000)
  %7 = load ptr, ptr %2, align 8
  call void @_ZN12outputStream2crEv(ptr noundef nonnull align 8 dereferenceable(56) %7)
  %8 = load ptr, ptr %2, align 8
  call void (ptr, ptr, ...) @_ZN12outputStream8print_crEPKcz(ptr noundef nonnull align 8 dereferenceable(56) %8, ptr noundef @.str.54)
  %9 = load ptr, ptr %2, align 8
  call void @_ZN12outputStream2crEv(ptr noundef nonnull align 8 dereferenceable(56) %9)
  %10 = load ptr, ptr %2, align 8
  call void @_ZN9Arguments16print_summary_onEP12outputStream(ptr noundef %10)
  %11 = load ptr, ptr %2, align 8
  call void @_ZN12outputStream2crEv(ptr noundef nonnull align 8 dereferenceable(56) %11)
  %12 = load ptr, ptr %2, align 8
  %13 = getelementptr inbounds [2000 x i8], ptr %3, i64 0, i64 0
  call void @_ZN2os18print_summary_infoEP12outputStreamPcm(ptr noundef %12, ptr noundef %13, i64 noundef 2000)
  %14 = load ptr, ptr %2, align 8
  %15 = getelementptr inbounds [2000 x i8], ptr %3, i64 0, i64 0
  call void @_ZN2os19print_date_and_timeEP12outputStreamPcm(ptr noundef %14, ptr noundef %15, i64 noundef 2000)
  %16 = load ptr, ptr %2, align 8
  call void @_ZN12outputStream2crEv(ptr noundef nonnull align 8 dereferenceable(56) %16)
  %17 = load ptr, ptr %2, align 8
  call void (ptr, ptr, ...) @_ZN12outputStream8print_crEPKcz(ptr noundef nonnull align 8 dereferenceable(56) %17, ptr noundef @.str.97)
  %18 = load ptr, ptr %2, align 8
  call void @_ZN12outputStream2crEv(ptr noundef nonnull align 8 dereferenceable(56) %18)
  %19 = call noundef zeroext i1 @_ZN10Exceptions20has_exception_countsEv()
  br i1 %19, label %20, label %24

20:                                               ; preds = %1
  %21 = load ptr, ptr %2, align 8
  call void (ptr, ptr, ...) @_ZN12outputStream8print_crEPKcz(ptr noundef nonnull align 8 dereferenceable(56) %21, ptr noundef @.str.110)
  %22 = load ptr, ptr %2, align 8
  call void @_ZN10Exceptions31print_exception_counts_on_errorEP12outputStream(ptr noundef %22)
  %23 = load ptr, ptr %2, align 8
  call void @_ZN12outputStream2crEv(ptr noundef nonnull align 8 dereferenceable(56) %23)
  br label %24

24:                                               ; preds = %20, %1
  %25 = load i8, ptr @UseCompressedOops, align 1
  %26 = trunc i8 %25 to i1
  br i1 %26, label %27, label %30

27:                                               ; preds = %24
  %28 = load ptr, ptr %2, align 8
  call void @_ZN14CompressedOops10print_modeEP12outputStream(ptr noundef %28)
  %29 = load ptr, ptr %2, align 8
  call void @_ZN12outputStream2crEv(ptr noundef nonnull align 8 dereferenceable(56) %29)
  br label %30

30:                                               ; preds = %27, %24
  %31 = load i8, ptr @UseCompressedClassPointers, align 1
  %32 = trunc i8 %31 to i1
  br i1 %32, label %33, label %38

33:                                               ; preds = %30
  %34 = load ptr, ptr %2, align 8
  call void @_ZN15MetaspaceShared8print_onEP12outputStream(ptr noundef %34)
  %35 = load ptr, ptr %2, align 8
  call void @_ZN9Metaspace28print_compressed_class_spaceEP12outputStream(ptr noundef %35)
  %36 = load ptr, ptr %2, align 8
  call void @_ZN23CompressedKlassPointers10print_modeEP12outputStream(ptr noundef %36)
  %37 = load ptr, ptr %2, align 8
  call void @_ZN12outputStream2crEv(ptr noundef nonnull align 8 dereferenceable(56) %37)
  br label %38

38:                                               ; preds = %33, %30
  %39 = call noundef zeroext i1 @_ZN8Universe20is_fully_initializedEv()
  br i1 %39, label %40, label %53

40:                                               ; preds = %38
  %41 = load ptr, ptr @Heap_lock, align 8
  call void @_ZN11MutexLockerC2EP5MutexNS0_18SafepointCheckFlagE(ptr noundef nonnull align 8 dereferenceable(8) %4, ptr noundef %41, i32 noundef 0)
  %42 = load ptr, ptr %2, align 8
  call void @_ZN13GCLogPrecious14print_on_errorEP12outputStream(ptr noundef %42)
  %43 = call noundef ptr @_ZN8Universe4heapEv()
  %44 = load ptr, ptr %2, align 8
  %45 = load ptr, ptr %43, align 8
  %46 = getelementptr inbounds ptr, ptr %45, i64 42
  %47 = load ptr, ptr %46, align 8
  call void %47(ptr noundef nonnull align 8 dereferenceable(104) %43, ptr noundef %44)
  %48 = load ptr, ptr %2, align 8
  call void @_ZN12outputStream2crEv(ptr noundef nonnull align 8 dereferenceable(56) %48)
  %49 = load ptr, ptr %2, align 8
  %50 = call noundef ptr @_ZN18SafepointMechanism16get_polling_pageEv()
  %51 = call noundef i64 @_Z3p2iPVKv(ptr noundef %50)
  call void (ptr, ptr, ...) @_ZN12outputStream8print_crEPKcz(ptr noundef nonnull align 8 dereferenceable(56) %49, ptr noundef @.str.114, i64 noundef %51)
  %52 = load ptr, ptr %2, align 8
  call void @_ZN12outputStream2crEv(ptr noundef nonnull align 8 dereferenceable(56) %52)
  call void @_ZN11MutexLockerD2Ev(ptr noundef nonnull align 8 dereferenceable(8) %4) #9
  br label %53

53:                                               ; preds = %40, %38
  %54 = call noundef zeroext i1 @_ZN8Universe20is_fully_initializedEv()
  br i1 %54, label %55, label %58

55:                                               ; preds = %53
  %56 = load ptr, ptr %2, align 8
  call void (ptr, ptr, ...) @_ZN12outputStream8print_crEPKcz(ptr noundef nonnull align 8 dereferenceable(56) %56, ptr noundef @.str.116)
  %57 = load ptr, ptr %2, align 8
  call void @_ZN14MetaspaceUtils18print_basic_reportEP12outputStreamm(ptr noundef %57, i64 noundef 0)
  br label %58

58:                                               ; preds = %55, %53
  %59 = call noundef zeroext i1 @_ZN8Universe20is_fully_initializedEv()
  br i1 %59, label %60, label %63

60:                                               ; preds = %58
  %61 = load ptr, ptr %2, align 8
  call void @_ZN9CodeCache13print_summaryEP12outputStreamb(ptr noundef %61, i1 noundef zeroext true)
  %62 = load ptr, ptr %2, align 8
  call void @_ZN12outputStream2crEv(ptr noundef nonnull align 8 dereferenceable(56) %62)
  br label %63

63:                                               ; preds = %60, %58
  %64 = load ptr, ptr %2, align 8
  call void @_ZN6Events9print_allEP12outputStreami(ptr noundef %64, i32 noundef -1)
  %65 = load ptr, ptr %2, align 8
  call void @_ZN12outputStream2crEv(ptr noundef nonnull align 8 dereferenceable(56) %65)
  %66 = load ptr, ptr %2, align 8
  call void @_ZN2os14print_dll_infoEP12outputStream(ptr noundef %66)
  %67 = load ptr, ptr %2, align 8
  call void @_ZN12outputStream2crEv(ptr noundef nonnull align 8 dereferenceable(56) %67)
  %68 = load ptr, ptr %2, align 8
  call void @_ZN9Arguments8print_onEP12outputStream(ptr noundef %68)
  %69 = load ptr, ptr %2, align 8
  call void @_ZN12outputStream2crEv(ptr noundef nonnull align 8 dereferenceable(56) %69)
  %70 = call noundef zeroext i1 @_ZN8WhiteBox4usedEv()
  br i1 %70, label %71, label %74

71:                                               ; preds = %63
  %72 = load ptr, ptr %2, align 8
  call void (ptr, ptr, ...) @_ZN12outputStream8print_crEPKcz(ptr noundef nonnull align 8 dereferenceable(56) %72, ptr noundef @.str.124)
  %73 = load ptr, ptr %2, align 8
  call void @_ZN12outputStream2crEv(ptr noundef nonnull align 8 dereferenceable(56) %73)
  br label %74

74:                                               ; preds = %71, %63
  %75 = load ptr, ptr %2, align 8
  call void (ptr, ptr, ...) @_ZN12outputStream8print_crEPKcz(ptr noundef nonnull align 8 dereferenceable(56) %75, ptr noundef @.str.126)
  %76 = load ptr, ptr %2, align 8
  call void @_ZN16LogConfiguration8describeEP12outputStream(ptr noundef %76)
  %77 = load ptr, ptr %2, align 8
  call void @_ZN12outputStream2crEv(ptr noundef nonnull align 8 dereferenceable(56) %77)
  %78 = load ptr, ptr %2, align 8
  call void @_ZN2os27print_environment_variablesEP12outputStreamPPKc(ptr noundef %78, ptr noundef @_ZL8env_list)
  %79 = load ptr, ptr %2, align 8
  call void @_ZN12outputStream2crEv(ptr noundef nonnull align 8 dereferenceable(56) %79)
  %80 = load ptr, ptr %2, align 8
  call void @_ZN2os19print_active_localeEP12outputStream(ptr noundef %80)
  %81 = load ptr, ptr %2, align 8
  call void @_ZN12outputStream2crEv(ptr noundef nonnull align 8 dereferenceable(56) %81)
  %82 = load ptr, ptr %2, align 8
  %83 = getelementptr inbounds [2000 x i8], ptr %3, i64 0, i64 0
  call void @_ZN2os21print_signal_handlersEP12outputStreamPcm(ptr noundef %82, ptr noundef %83, i64 noundef 2000)
  %84 = load ptr, ptr %2, align 8
  call void @_ZN12outputStream2crEv(ptr noundef nonnull align 8 dereferenceable(56) %84)
  %85 = load ptr, ptr %2, align 8
  call void @_ZN10MemTracker12error_reportEP12outputStream(ptr noundef %85)
  %86 = load ptr, ptr %2, align 8
  call void @_ZN12outputStream2crEv(ptr noundef nonnull align 8 dereferenceable(56) %86)
  %87 = load ptr, ptr %2, align 8
  call void @_ZN17NativeHeapTrimmer11print_stateEP12outputStream(ptr noundef %87)
  %88 = load ptr, ptr %2, align 8
  call void @_ZN12outputStream2crEv(ptr noundef nonnull align 8 dereferenceable(56) %88)
  %89 = load ptr, ptr %2, align 8
  call void (ptr, ptr, ...) @_ZN12outputStream8print_crEPKcz(ptr noundef nonnull align 8 dereferenceable(56) %89, ptr noundef @.str.133)
  %90 = load ptr, ptr %2, align 8
  call void @_ZN12outputStream2crEv(ptr noundef nonnull align 8 dereferenceable(56) %90)
  %91 = load ptr, ptr %2, align 8
  call void @_ZN2os13print_os_infoEP12outputStream(ptr noundef %91)
  %92 = load ptr, ptr %2, align 8
  call void @_ZN12outputStream2crEv(ptr noundef nonnull align 8 dereferenceable(56) %92)
  %93 = load ptr, ptr %2, align 8
  %94 = getelementptr inbounds [2000 x i8], ptr %3, i64 0, i64 0
  call void @_ZN2os14print_cpu_infoEP12outputStreamPcm(ptr noundef %93, ptr noundef %94, i64 noundef 2000)
  %95 = load ptr, ptr %2, align 8
  call void @_ZN12outputStream2crEv(ptr noundef nonnull align 8 dereferenceable(56) %95)
  %96 = load ptr, ptr %2, align 8
  call void @_ZN2os17print_memory_infoEP12outputStream(ptr noundef %96)
  %97 = load ptr, ptr %2, align 8
  call void @_ZN12outputStream2crEv(ptr noundef nonnull align 8 dereferenceable(56) %97)
  %98 = load ptr, ptr %2, align 8
  %99 = call noundef ptr @_ZN19Abstract_VM_Version23internal_vm_info_stringEv()
  call void (ptr, ptr, ...) @_ZN12outputStream8print_crEPKcz(ptr noundef nonnull align 8 dereferenceable(56) %98, ptr noundef @.str.138, ptr noundef %99)
  %100 = load ptr, ptr %2, align 8
  call void @_ZN12outputStream2crEv(ptr noundef nonnull align 8 dereferenceable(56) %100)
  %101 = load ptr, ptr %2, align 8
  call void (ptr, ptr, ...) @_ZN12outputStream8print_crEPKcz(ptr noundef nonnull align 8 dereferenceable(56) %101, ptr noundef @.str.140)
  ret void
}