; Function Attrs: mustprogress nounwind uwtable
define hidden void @_ZN7VMError13print_vm_infoEP12outputStream(ptr noundef %0) local_unnamed_addr #0 align 2 {
  %2 = alloca [2000 x i8], align 16
  tail call void @_ZN2os22prepare_native_symbolsEv() #21
  call fastcc void @_ZL17report_vm_versionP12outputStreamPci(ptr noundef %0, ptr noundef nonnull %2)
  call void @_ZN12outputStream2crEv(ptr noundef nonnull align 8 dereferenceable(56) %0) #21
  call void (ptr, ptr, ...) @_ZN12outputStream8print_crEPKcz(ptr noundef nonnull align 8 dereferenceable(56) %0, ptr noundef nonnull @.str.54) #21
  call void @_ZN12outputStream2crEv(ptr noundef nonnull align 8 dereferenceable(56) %0) #21
  call void @_ZN9Arguments16print_summary_onEP12outputStream(ptr noundef nonnull %0) #21
  call void @_ZN12outputStream2crEv(ptr noundef nonnull align 8 dereferenceable(56) %0) #21
  call void @_ZN2os18print_summary_infoEP12outputStreamPcm(ptr noundef nonnull %0, ptr noundef nonnull %2, i64 noundef 2000) #21
  call void @_ZN2os19print_date_and_timeEP12outputStreamPcm(ptr noundef nonnull %0, ptr noundef nonnull %2, i64 noundef 2000) #21
  call void @_ZN12outputStream2crEv(ptr noundef nonnull align 8 dereferenceable(56) %0) #21
  call void (ptr, ptr, ...) @_ZN12outputStream8print_crEPKcz(ptr noundef nonnull align 8 dereferenceable(56) %0, ptr noundef nonnull @.str.97) #21
  call void @_ZN12outputStream2crEv(ptr noundef nonnull align 8 dereferenceable(56) %0) #21
  %3 = call noundef zeroext i1 @_ZN10Exceptions20has_exception_countsEv() #21
  br i1 %3, label %4, label %5

4:                                                ; preds = %1
  call void (ptr, ptr, ...) @_ZN12outputStream8print_crEPKcz(ptr noundef nonnull align 8 dereferenceable(56) %0, ptr noundef nonnull @.str.110) #21
  call void @_ZN10Exceptions31print_exception_counts_on_errorEP12outputStream(ptr noundef nonnull %0) #21
  call void @_ZN12outputStream2crEv(ptr noundef nonnull align 8 dereferenceable(56) %0) #21
  br label %5

5:                                                ; preds = %4, %1
  %6 = load i8, ptr @UseCompressedOops, align 1
  %7 = trunc i8 %6 to i1
  br i1 %7, label %8, label %9

8:                                                ; preds = %5
  call void @_ZN14CompressedOops10print_modeEP12outputStream(ptr noundef nonnull %0) #21
  call void @_ZN12outputStream2crEv(ptr noundef nonnull align 8 dereferenceable(56) %0) #21
  br label %9

9:                                                ; preds = %8, %5
  %10 = load i8, ptr @UseCompressedClassPointers, align 1
  %11 = trunc i8 %10 to i1
  br i1 %11, label %12, label %13

12:                                               ; preds = %9
  call void @_ZN15MetaspaceShared8print_onEP12outputStream(ptr noundef nonnull %0) #21
  call void @_ZN9Metaspace28print_compressed_class_spaceEP12outputStream(ptr noundef nonnull %0) #21
  call void @_ZN23CompressedKlassPointers10print_modeEP12outputStream(ptr noundef nonnull %0) #21
  call void @_ZN12outputStream2crEv(ptr noundef nonnull align 8 dereferenceable(56) %0) #21
  br label %13

13:                                               ; preds = %12, %9
  %14 = load i8, ptr @_ZN8Universe18_fully_initializedE, align 1
  %15 = trunc i8 %14 to i1
  br i1 %15, label %16, label %_ZN11MutexLockerD2Ev.exit

16:                                               ; preds = %13
  %17 = load ptr, ptr @Heap_lock, align 8
  %.not.i.i = icmp eq ptr %17, null
  br i1 %.not.i.i, label %_ZN11MutexLockerC2EP5MutexNS0_18SafepointCheckFlagE.exit, label %18

18:                                               ; preds = %16
  call void @_ZN5Mutex4lockEv(ptr noundef nonnull align 8 dereferenceable(104) %17) #21
  br label %_ZN11MutexLockerC2EP5MutexNS0_18SafepointCheckFlagE.exit

_ZN11MutexLockerC2EP5MutexNS0_18SafepointCheckFlagE.exit: ; preds = %16, %18
  call void @_ZN13GCLogPrecious14print_on_errorEP12outputStream(ptr noundef nonnull %0) #21
  %19 = load ptr, ptr @_ZN8Universe14_collectedHeapE, align 8
  %20 = load ptr, ptr %19, align 8
  %21 = getelementptr inbounds i8, ptr %20, i64 336
  %22 = load ptr, ptr %21, align 8
  call void %22(ptr noundef nonnull align 8 dereferenceable(104) %19, ptr noundef nonnull %0) #21
  call void @_ZN12outputStream2crEv(ptr noundef nonnull align 8 dereferenceable(56) %0) #21
  %23 = load ptr, ptr @_ZN18SafepointMechanism13_polling_pageE, align 8
  %24 = ptrtoint ptr %23 to i64
  call void (ptr, ptr, ...) @_ZN12outputStream8print_crEPKcz(ptr noundef nonnull align 8 dereferenceable(56) %0, ptr noundef nonnull @.str.114, i64 noundef %24) #21
  call void @_ZN12outputStream2crEv(ptr noundef nonnull align 8 dereferenceable(56) %0) #21
  br i1 %.not.i.i, label %_ZN11MutexLockerD2Ev.exit, label %25

25:                                               ; preds = %_ZN11MutexLockerC2EP5MutexNS0_18SafepointCheckFlagE.exit
  call void @_ZN5Mutex6unlockEv(ptr noundef nonnull align 8 dereferenceable(104) %17) #21
  br label %_ZN11MutexLockerD2Ev.exit

_ZN11MutexLockerD2Ev.exit:                        ; preds = %25, %_ZN11MutexLockerC2EP5MutexNS0_18SafepointCheckFlagE.exit, %13
  %26 = load i8, ptr @_ZN8Universe18_fully_initializedE, align 1
  %27 = trunc i8 %26 to i1
  br i1 %27, label %28, label %29

28:                                               ; preds = %_ZN11MutexLockerD2Ev.exit
  call void (ptr, ptr, ...) @_ZN12outputStream8print_crEPKcz(ptr noundef nonnull align 8 dereferenceable(56) %0, ptr noundef nonnull @.str.116) #21
  call void @_ZN14MetaspaceUtils18print_basic_reportEP12outputStreamm(ptr noundef nonnull %0, i64 noundef 0) #21
  %.pre = load i8, ptr @_ZN8Universe18_fully_initializedE, align 1
  br label %29

29:                                               ; preds = %28, %_ZN11MutexLockerD2Ev.exit
  %30 = phi i8 [ %.pre, %28 ], [ %26, %_ZN11MutexLockerD2Ev.exit ]
  %31 = trunc i8 %30 to i1
  br i1 %31, label %32, label %33

32:                                               ; preds = %29
  call void @_ZN9CodeCache13print_summaryEP12outputStreamb(ptr noundef nonnull %0, i1 noundef zeroext true) #21
  call void @_ZN12outputStream2crEv(ptr noundef nonnull align 8 dereferenceable(56) %0) #21
  br label %33

33:                                               ; preds = %32, %29
  call void @_ZN6Events9print_allEP12outputStreami(ptr noundef nonnull %0, i32 noundef -1) #21
  call void @_ZN12outputStream2crEv(ptr noundef nonnull align 8 dereferenceable(56) %0) #21
  call void @_ZN2os14print_dll_infoEP12outputStream(ptr noundef nonnull %0) #21
  call void @_ZN12outputStream2crEv(ptr noundef nonnull align 8 dereferenceable(56) %0) #21
  call void @_ZN9Arguments8print_onEP12outputStream(ptr noundef nonnull %0) #21
  call void @_ZN12outputStream2crEv(ptr noundef nonnull align 8 dereferenceable(56) %0) #21
  %34 = load i8, ptr @_ZN8WhiteBox5_usedE, align 1
  %35 = trunc i8 %34 to i1
  br i1 %35, label %36, label %37

36:                                               ; preds = %33
  call void (ptr, ptr, ...) @_ZN12outputStream8print_crEPKcz(ptr noundef nonnull align 8 dereferenceable(56) %0, ptr noundef nonnull @.str.124) #21
  call void @_ZN12outputStream2crEv(ptr noundef nonnull align 8 dereferenceable(56) %0) #21
  br label %37

37:                                               ; preds = %36, %33
  call void (ptr, ptr, ...) @_ZN12outputStream8print_crEPKcz(ptr noundef nonnull align 8 dereferenceable(56) %0, ptr noundef nonnull @.str.126) #21
  call void @_ZN16LogConfiguration8describeEP12outputStream(ptr noundef nonnull %0) #21
  call void @_ZN12outputStream2crEv(ptr noundef nonnull align 8 dereferenceable(56) %0) #21
  call void @_ZN2os27print_environment_variablesEP12outputStreamPPKc(ptr noundef nonnull %0, ptr noundef nonnull @_ZL8env_list) #21
  call void @_ZN12outputStream2crEv(ptr noundef nonnull align 8 dereferenceable(56) %0) #21
  call void @_ZN2os19print_active_localeEP12outputStream(ptr noundef nonnull %0) #21
  call void @_ZN12outputStream2crEv(ptr noundef nonnull align 8 dereferenceable(56) %0) #21
  call void @_ZN2os21print_signal_handlersEP12outputStreamPcm(ptr noundef nonnull %0, ptr noundef nonnull %2, i64 noundef 2000) #21
  call void @_ZN12outputStream2crEv(ptr noundef nonnull align 8 dereferenceable(56) %0) #21
  call void @_ZN10MemTracker12error_reportEP12outputStream(ptr noundef nonnull %0) #21
  call void @_ZN12outputStream2crEv(ptr noundef nonnull align 8 dereferenceable(56) %0) #21
  call void @_ZN17NativeHeapTrimmer11print_stateEP12outputStream(ptr noundef nonnull %0) #21
  call void @_ZN12outputStream2crEv(ptr noundef nonnull align 8 dereferenceable(56) %0) #21
  call void (ptr, ptr, ...) @_ZN12outputStream8print_crEPKcz(ptr noundef nonnull align 8 dereferenceable(56) %0, ptr noundef nonnull @.str.133) #21
  call void @_ZN12outputStream2crEv(ptr noundef nonnull align 8 dereferenceable(56) %0) #21
  call void @_ZN2os13print_os_infoEP12outputStream(ptr noundef nonnull %0) #21
  call void @_ZN12outputStream2crEv(ptr noundef nonnull align 8 dereferenceable(56) %0) #21
  call void @_ZN2os14print_cpu_infoEP12outputStreamPcm(ptr noundef nonnull %0, ptr noundef nonnull %2, i64 noundef 2000) #21
  call void @_ZN12outputStream2crEv(ptr noundef nonnull align 8 dereferenceable(56) %0) #21
  call void @_ZN2os17print_memory_infoEP12outputStream(ptr noundef nonnull %0) #21
  call void @_ZN12outputStream2crEv(ptr noundef nonnull align 8 dereferenceable(56) %0) #21
  %38 = call noundef ptr @_ZN19Abstract_VM_Version23internal_vm_info_stringEv() #21
  call void (ptr, ptr, ...) @_ZN12outputStream8print_crEPKcz(ptr noundef nonnull align 8 dereferenceable(56) %0, ptr noundef nonnull @.str.138, ptr noundef %38) #21
  call void @_ZN12outputStream2crEv(ptr noundef nonnull align 8 dereferenceable(56) %0) #21
  call void (ptr, ptr, ...) @_ZN12outputStream8print_crEPKcz(ptr noundef nonnull align 8 dereferenceable(56) %0, ptr noundef nonnull @.str.140) #21
  ret void
}